
chal_tectl_vc4lite.o:     file format elf32-littlearm


Disassembly of section .text:

00000000 <chal_te_set_mux_out>:
   0:	e92d4030 	push	{r4, r5, lr}
   4:	e3510005 	cmp	r1, #5	; 0x5
   8:	979ff101 	ldrls	pc, [pc, r1, lsl #2]
   c:	ea000005 	b	28 <chal_te_set_mux_out+0x28>
  10:	0000003c 	.word	0x0000003c
  14:	00000048 	.word	0x00000048
  18:	00000030 	.word	0x00000030
  1c:	00000054 	.word	0x00000054
  20:	00000060 	.word	0x00000060
  24:	0000006c 	.word	0x0000006c
  28:	e3e00000 	mvn	r0, #0	; 0x0
  2c:	e8bd8030 	pop	{r4, r5, pc}
  30:	e1a03000 	mov	r3, r0
  34:	e3a02003 	mov	r2, #3	; 0x3
  38:	ea00000d 	b	74 <chal_te_set_mux_out+0x74>
  3c:	e1a03a00 	lsl	r3, r0, #20
  40:	e3a02603 	mov	r2, #3145728	; 0x300000
  44:	ea00000a 	b	74 <chal_te_set_mux_out+0x74>
  48:	e1a03800 	lsl	r3, r0, #16
  4c:	e3a02803 	mov	r2, #196608	; 0x30000
  50:	ea000007 	b	74 <chal_te_set_mux_out+0x74>
  54:	e1a03200 	lsl	r3, r0, #4
  58:	e3a02030 	mov	r2, #48	; 0x30
  5c:	ea000004 	b	74 <chal_te_set_mux_out+0x74>
  60:	e1a03400 	lsl	r3, r0, #8
  64:	e3a02c03 	mov	r2, #768	; 0x300
  68:	ea000001 	b	74 <chal_te_set_mux_out+0x74>
  6c:	e1a03600 	lsl	r3, r0, #12
  70:	e3a02a03 	mov	r2, #12288	; 0x3000
  74:	e59f4024 	ldr	r4, [pc, #36]	; a0 <chal_te_set_mux_out+0xa0>
  78:	e3a00000 	mov	r0, #0	; 0x0
  7c:	e59fc020 	ldr	ip, [pc, #32]	; a4 <chal_te_set_mux_out+0xa4>
  80:	e5945018 	ldr	r5, [r4, #24]
  84:	e1a0100c 	mov	r1, ip
  88:	e005c00c 	and	ip, r5, ip
  8c:	e1cc2002 	bic	r2, ip, r2
  90:	e1823003 	orr	r3, r2, r3
  94:	e0031001 	and	r1, r3, r1
  98:	e5841018 	str	r1, [r4, #24]
  9c:	e8bd8030 	pop	{r4, r5, pc}
  a0:	f8002000 	.word	0xf8002000
  a4:	00333333 	.word	0x00333333

000000a8 <chal_te_cfg_input>:
  a8:	e891000c 	ldm	r1, {r2, r3}
  ac:	e3530001 	cmp	r3, #1	; 0x1
  b0:	03a03004 	moveq	r3, #4	; 0x4
  b4:	13a03000 	movne	r3, #0	; 0x0
  b8:	e3520001 	cmp	r2, #1	; 0x1
  bc:	1a000004 	bne	d4 <chal_te_cfg_input+0x2c>
  c0:	e591200c 	ldr	r2, [r1, #12]
  c4:	e3520801 	cmp	r2, #65536	; 0x10000
  c8:	2a000020 	bcs	150 <chal_te_cfg_input+0xa8>
  cc:	e1833182 	orr	r3, r3, r2, lsl #3
  d0:	e3833002 	orr	r3, r3, #2	; 0x2
  d4:	e3500002 	cmp	r0, #2	; 0x2
  d8:	e3833001 	orr	r3, r3, #1	; 0x1
  dc:	0a00000b 	beq	110 <chal_te_cfg_input+0x68>
  e0:	e3500003 	cmp	r0, #3	; 0x3
  e4:	0a000011 	beq	130 <chal_te_cfg_input+0x88>
  e8:	e3500001 	cmp	r0, #1	; 0x1
  ec:	1a000017 	bne	150 <chal_te_cfg_input+0xa8>
  f0:	e5911008 	ldr	r1, [r1, #8]
  f4:	e3c334ff 	bic	r3, r3, #-16777216	; 0xff000000
  f8:	e59f2058 	ldr	r2, [pc, #88]	; 158 <chal_te_cfg_input+0xb0>
  fc:	e3c3373e 	bic	r3, r3, #16252928	; 0xf80000
 100:	e3a00000 	mov	r0, #0	; 0x0
 104:	e5821004 	str	r1, [r2, #4]
 108:	e5823000 	str	r3, [r2]
 10c:	e12fff1e 	bx	lr
 110:	e5911008 	ldr	r1, [r1, #8]
 114:	e3c334ff 	bic	r3, r3, #-16777216	; 0xff000000
 118:	e59f2038 	ldr	r2, [pc, #56]	; 158 <chal_te_cfg_input+0xb0>
 11c:	e3c3373e 	bic	r3, r3, #16252928	; 0xf80000
 120:	e3a00000 	mov	r0, #0	; 0x0
 124:	e582100c 	str	r1, [r2, #12]
 128:	e5823008 	str	r3, [r2, #8]
 12c:	e12fff1e 	bx	lr
 130:	e5911008 	ldr	r1, [r1, #8]
 134:	e3c334ff 	bic	r3, r3, #-16777216	; 0xff000000
 138:	e59f2018 	ldr	r2, [pc, #24]	; 158 <chal_te_cfg_input+0xb0>
 13c:	e3c3373e 	bic	r3, r3, #16252928	; 0xf80000
 140:	e3a00000 	mov	r0, #0	; 0x0
 144:	e5821014 	str	r1, [r2, #20]
 148:	e5823010 	str	r3, [r2, #16]
 14c:	e12fff1e 	bx	lr
 150:	e3e00000 	mvn	r0, #0	; 0x0
 154:	e12fff1e 	bx	lr
 158:	f8002000 	.word	0xf8002000
